; Function Attrs: nofree norecurse nosync nounwind memory(argmem: write) uwtable
define internal void @dc_127_8x8_c(ptr noundef writeonly captures(none) %0, i64 noundef %1, ptr readnone captures(none) %2, ptr readnone captures(none) %3) #4 {
  br label %5

5:                                                ; preds = %4, %5
  %.011 = phi i32 [ 0, %4 ], [ %8, %5 ]
  %.0910 = phi ptr [ %0, %4 ], [ %7, %5 ]
  store i32 2139062143, ptr %.0910, align 4, !tbaa !8
  %6 = getelementptr inbounds nuw i8, ptr %.0910, i64 4
  store i32 2139062143, ptr %6, align 4, !tbaa !8
  %7 = getelementptr inbounds i8, ptr %.0910, i64 %1
  %8 = add nuw nsw i32 %.011, 1
  %exitcond.not = icmp eq i32 %8, 8
  br i1 %exitcond.not, label %9, label %5, !llvm.loop !32

9:                                                ; preds = %5
  ret void
}